target datalayout = "e-m:e-p270:32:32-p271:32:32-p272:64:64-i64:64-i128:128-f80:128-n8:16:32:64-S128"
target triple = "x86_64-pc-linux-gnu"

; Function Attrs: nounwind sspstrong uwtable
define internal i64 @fun_si_from_utf_16(ptr noundef %0, ptr noundef %1, i64 noundef %2) #0 {
  %4 = alloca i64, align 8
  %5 = alloca ptr, align 8
  %6 = alloca ptr, align 8
  %7 = alloca i64, align 8
  %8 = alloca ptr, align 8
  %9 = alloca i32, align 4
  store ptr %0, ptr %5, align 8, !tbaa !6
  store ptr %1, ptr %6, align 8, !tbaa !10
  store i64 %2, ptr %7, align 8, !tbaa !12
  call void @llvm.lifetime.start.p0(i64 8, ptr %8) #3
  %10 = load ptr, ptr %5, align 8, !tbaa !6
  store ptr %10, ptr %8, align 8, !tbaa !10
  %11 = load ptr, ptr %8, align 8, !tbaa !10
  %12 = load i8, ptr %11, align 1, !tbaa !14
  %13 = zext i8 %12 to i32
  switch i32 %13, label %88 [
    i32 0, label %14
    i32 1, label %44
    i32 2, label %66
  ]

14:                                               ; preds = %3
  %15 = load ptr, ptr %6, align 8, !tbaa !10
  %16 = getelementptr inbounds i8, ptr %15, i64 0
  %17 = load i8, ptr %16, align 1, !tbaa !14
  %18 = zext i8 %17 to i32
  %19 = icmp eq i32 %18, 254
  br i1 %19, label %20, label %28

20:                                               ; preds = %14
  %21 = load ptr, ptr %6, align 8, !tbaa !10
  %22 = getelementptr inbounds i8, ptr %21, i64 1
  %23 = load i8, ptr %22, align 1, !tbaa !14
  %24 = zext i8 %23 to i32
  %25 = icmp eq i32 %24, 255
  br i1 %25, label %26, label %28

26:                                               ; preds = %20
  %27 = load ptr, ptr %8, align 8, !tbaa !10
  store i8 1, ptr %27, align 1, !tbaa !14
  store i64 10, ptr %4, align 8
  store i32 1, ptr %9, align 4
  br label %89

28:                                               ; preds = %20, %14
  %29 = load ptr, ptr %6, align 8, !tbaa !10
  %30 = getelementptr inbounds i8, ptr %29, i64 0
  %31 = load i8, ptr %30, align 1, !tbaa !14
  %32 = zext i8 %31 to i32
  %33 = icmp eq i32 %32, 255
  br i1 %33, label %34, label %42

34:                                               ; preds = %28
  %35 = load ptr, ptr %6, align 8, !tbaa !10
  %36 = getelementptr inbounds i8, ptr %35, i64 1
  %37 = load i8, ptr %36, align 1, !tbaa !14
  %38 = zext i8 %37 to i32
  %39 = icmp eq i32 %38, 254
  br i1 %39, label %40, label %42

40:                                               ; preds = %34
  %41 = load ptr, ptr %8, align 8, !tbaa !10
  store i8 2, ptr %41, align 1, !tbaa !14
  store i64 10, ptr %4, align 8
  store i32 1, ptr %9, align 4
  br label %89

42:                                               ; preds = %34, %28
  br label %43

43:                                               ; preds = %42
  br label %88

44:                                               ; preds = %3
  %45 = load ptr, ptr %6, align 8, !tbaa !10
  %46 = getelementptr inbounds i8, ptr %45, i64 0
  %47 = load i8, ptr %46, align 1, !tbaa !14
  %48 = zext i8 %47 to i32
  %49 = icmp slt i32 %48, 216
  br i1 %49, label %56, label %50

50:                                               ; preds = %44
  %51 = load ptr, ptr %6, align 8, !tbaa !10
  %52 = getelementptr inbounds i8, ptr %51, i64 0
  %53 = load i8, ptr %52, align 1, !tbaa !14
  %54 = zext i8 %53 to i32
  %55 = icmp slt i32 223, %54
  br i1 %55, label %56, label %57

56:                                               ; preds = %50, %44
  store i64 15, ptr %4, align 8
  store i32 1, ptr %9, align 4
  br label %89

57:                                               ; preds = %50
  %58 = load ptr, ptr %6, align 8, !tbaa !10
  %59 = getelementptr inbounds i8, ptr %58, i64 0
  %60 = load i8, ptr %59, align 1, !tbaa !14
  %61 = zext i8 %60 to i32
  %62 = icmp sle i32 %61, 219
  br i1 %62, label %63, label %64

63:                                               ; preds = %57
  store i64 156, ptr %4, align 8
  store i32 1, ptr %9, align 4
  br label %89

64:                                               ; preds = %57
  br label %65

65:                                               ; preds = %64
  br label %88

66:                                               ; preds = %3
  %67 = load ptr, ptr %6, align 8, !tbaa !10
  %68 = getelementptr inbounds i8, ptr %67, i64 1
  %69 = load i8, ptr %68, align 1, !tbaa !14
  %70 = zext i8 %69 to i32
  %71 = icmp slt i32 %70, 216
  br i1 %71, label %78, label %72

72:                                               ; preds = %66
  %73 = load ptr, ptr %6, align 8, !tbaa !10
  %74 = getelementptr inbounds i8, ptr %73, i64 1
  %75 = load i8, ptr %74, align 1, !tbaa !14
  %76 = zext i8 %75 to i32
  %77 = icmp slt i32 223, %76
  br i1 %77, label %78, label %79

78:                                               ; preds = %72, %66
  store i64 15, ptr %4, align 8
  store i32 1, ptr %9, align 4
  br label %89

79:                                               ; preds = %72
  %80 = load ptr, ptr %6, align 8, !tbaa !10
  %81 = getelementptr inbounds i8, ptr %80, i64 1
  %82 = load i8, ptr %81, align 1, !tbaa !14
  %83 = zext i8 %82 to i32
  %84 = icmp sle i32 %83, 219
  br i1 %84, label %85, label %86

85:                                               ; preds = %79
  store i64 20, ptr %4, align 8
  store i32 1, ptr %9, align 4
  br label %89

86:                                               ; preds = %79
  br label %87

87:                                               ; preds = %86
  br label %88

88:                                               ; preds = %3, %87, %65, %43
  store i64 7, ptr %4, align 8
  store i32 1, ptr %9, align 4
  br label %89

89:                                               ; preds = %88, %85, %78, %63, %56, %40, %26
  call void @llvm.lifetime.end.p0(i64 8, ptr %8) #3
  %90 = load i64, ptr %4, align 8
  ret i64 %90
}