; Function Attrs: mustprogress nofree norecurse nosync nounwind sspstrong willreturn memory(argmem: readwrite) uwtable
define internal range(i64 7, 157) i64 @fun_si_from_utf_16(ptr noundef captures(none) %0, ptr noundef readonly captures(none) %1, i64 %2) #2 {
  %4 = load i8, ptr %0, align 1, !tbaa !6
  switch i8 %4, label %.thread [
    i8 0, label %5
    i8 1, label %17
    i8 2, label %22
  ]

5:                                                ; preds = %3
  %6 = load i8, ptr %1, align 1, !tbaa !6
  switch i8 %6, label %.thread [
    i8 -2, label %7
    i8 -1, label %12
  ]

7:                                                ; preds = %5
  %8 = getelementptr inbounds nuw i8, ptr %1, i64 1
  %9 = load i8, ptr %8, align 1, !tbaa !6
  %10 = icmp eq i8 %9, -1
  br i1 %10, label %11, label %.thread

11:                                               ; preds = %7
  store i8 1, ptr %0, align 1, !tbaa !6
  br label %28

12:                                               ; preds = %5
  %13 = getelementptr inbounds nuw i8, ptr %1, i64 1
  %14 = load i8, ptr %13, align 1, !tbaa !6
  %15 = icmp eq i8 %14, -2
  br i1 %15, label %16, label %.thread

16:                                               ; preds = %12
  store i8 2, ptr %0, align 1, !tbaa !6
  br label %28

17:                                               ; preds = %3
  %18 = load i8, ptr %1, align 1, !tbaa !6
  %19 = add i8 %18, 32
  %or.cond = icmp ult i8 %19, -8
  br i1 %or.cond, label %28, label %20

20:                                               ; preds = %17
  %21 = icmp samesign ult i8 %18, -36
  br i1 %21, label %28, label %.thread

22:                                               ; preds = %3
  %23 = getelementptr inbounds nuw i8, ptr %1, i64 1
  %24 = load i8, ptr %23, align 1, !tbaa !6
  %25 = add i8 %24, 32
  %or.cond16 = icmp ult i8 %25, -8
  br i1 %or.cond16, label %28, label %26

26:                                               ; preds = %22
  %27 = icmp samesign ult i8 %24, -36
  br i1 %27, label %28, label %.thread

.thread:                                          ; preds = %5, %7, %26, %20, %12, %3
  br label %28

28:                                               ; preds = %26, %22, %20, %17, %.thread, %16, %11
  %.0 = phi i64 [ 7, %.thread ], [ 10, %11 ], [ 10, %16 ], [ 15, %17 ], [ 156, %20 ], [ 15, %22 ], [ 20, %26 ]
  ret i64 %.0
}